ccollections
OrderedDict
p1
((lp2
(lp3
S'tag_scheme'
p4
aS'iob'
p5
aa(lp6
S'lower'
p7
aI00
aa(lp8
S'zeros'
p9
aI01
aa(lp10
S'char_dim'
p11
aI25
aa(lp12
S'char_lstm_dim'
p13
aI25
aa(lp14
S'char_bidirect'
p15
aI01
aa(lp16
S'word_dim'
p17
aI100
aa(lp18
S'pos_dim'
p19
aI5
aa(lp20
S'word_lstm_dim'
p21
aI100
aa(lp22
S'word_bidirect'
p23
aI01
aa(lp24
S'pre_emb'
p25
aS'/home/yuchen/useful_data/glove.twitter.27B.100d.txt'
p26
aa(lp27
S'all_emb'
p28
aI00
aa(lp29
S'cap_dim'
p30
aI0
aa(lp31
S'crf'
p32
aI01
aa(lp33
S'dropout'
p34
aF0.5
aa(lp35
S'lr_method'
p36
aS'adam'
p37
aatRp38
.