ccollections
OrderedDict
p1
((lp2
(lp3
S'lower'
p4
aI00
aa(lp5
S'zeros'
p6
aI00
aa(lp7
S'char_dim'
p8
aI25
aa(lp9
S'char_lstm_dim'
p10
aI25
aa(lp11
S'char_bidirect'
p12
aI01
aa(lp13
S'word_dim'
p14
aI100
aa(lp15
S'word_lstm_dim'
p16
aI100
aa(lp17
S'word_bidirect'
p18
aI01
aa(lp19
S'crf'
p20
aI01
aa(lp21
S'dropout'
p22
aF0
aa(lp23
S'lr_method'
p24
aS'sgd'
p25
aa(lp26
S'lr_rate'
p27
aF0.0050000000000000001
aa(lp28
S'clip_norm'
p29
aF0
aa(lp30
S'is_train'
p31
aI1
aa(lp32
S'batch_size'
p33
aI20
aatRp34
.