ccollections
OrderedDict
p1
((lp2
(lp3
S'tag_scheme'
p4
aS'iob'
p5
aa(lp6
S'lower'
p7
aI00
aa(lp8
S'zeros'
p9
aI01
aa(lp10
S'char_dim'
p11
aI25
aa(lp12
S'char_lstm_dim'
p13
aI25
aa(lp14
S'char_bidirect'
p15
aI01
aa(lp16
S'word_dim'
p17
aI100
aa(lp18
S'pos_dim'
p19
aI5
aa(lp20
S'dep_dim'
p21
aI0
aa(lp22
S'ind_dim'
p23
aI5
aa(lp24
S'head_dim'
p25
aI5
aa(lp26
S'model_path'
p27
aS'./models/all5055_url'
p28
aa(lp29
S'word_lstm_dim'
p30
aI100
aa(lp31
S'word_bidirect'
p32
aI01
aa(lp33
S'pre_emb'
p34
aS'/home/yuchen/useful_data/glove.twitter.27B.100d.txt'
p35
aa(lp36
S'all_emb'
p37
aI00
aa(lp38
S'cap_dim'
p39
aI0
aa(lp40
S'crf'
p41
aI01
aa(lp42
S'dropout'
p43
aF0.5
aa(lp44
S'lr_method'
p45
aS'adam'
p46
aatRp47
.